#include <math.h>
#include <stdio.h>
#include <stdlib.h>
#include <string.h>
#include <iostream>
using namespace std;

int main()
{
    int rank[6],a,b,c,d,e,i;
    for (e=1;e<=5;e++)
      if (e==2||e==3) continue;
      else 
       for (a=1;a<=5;a++)
          if (a==e) continue;
          else for (b=1;b<=5;b++)
                  if (e==b||a==b) continue;
                  else for (c=1;c<=5;c++)
                          if (e==c||a==c||b==c) continue;
                             else {
                                     d=15-a-b-c-e;
                                     rank[a]=(e==1);
                                     rank[b]=(b==2);
                                     rank[c]=(a==5);
                                     rank[d]=(c!=1);
                                     rank[e]=(d==1);                                     
                                     if (rank[1]==1&&rank[2]==1&&rank[3]==0&&rank[4]==0&&rank[5]==0)
                                       {                                                           
                                         cout <<a <<" " <<b <<" " <<c <<" " <<d <<" " <<e;
                                       } 
                                  } 
 
    return 0;
} 
