; ModuleID = '41/98.cpp'
source_filename = "41/98.cpp"
target datalayout = "e-m:e-p270:32:32-p271:32:32-p272:64:64-i64:64-f80:128-n8:16:32:64-S128"
target triple = "x86_64-pc-linux-gnu"

%"class.std::ios_base::Init" = type { i8 }
%"class.std::basic_ostream" = type { i32 (...)**, %"class.std::basic_ios" }
%"class.std::basic_ios" = type { %"class.std::ios_base", %"class.std::basic_ostream"*, i8, i8, %"class.std::basic_streambuf"*, %"class.std::ctype"*, %"class.std::num_put"*, %"class.std::num_get"* }
%"class.std::ios_base" = type { i32 (...)**, i64, i64, i32, i32, i32, %"struct.std::ios_base::_Callback_list"*, %"struct.std::ios_base::_Words", [8 x %"struct.std::ios_base::_Words"], i32, %"struct.std::ios_base::_Words"*, %"class.std::locale" }
%"struct.std::ios_base::_Callback_list" = type { %"struct.std::ios_base::_Callback_list"*, void (i32, %"class.std::ios_base"*, i32)*, i32, i32 }
%"struct.std::ios_base::_Words" = type { i8*, i64 }
%"class.std::locale" = type { %"class.std::locale::_Impl"* }
%"class.std::locale::_Impl" = type { i32, %"class.std::locale::facet"**, i64, %"class.std::locale::facet"**, i8** }
%"class.std::locale::facet" = type <{ i32 (...)**, i32, [4 x i8] }>
%"class.std::basic_streambuf" = type { i32 (...)**, i8*, i8*, i8*, i8*, i8*, i8*, %"class.std::locale" }
%"class.std::ctype" = type <{ %"class.std::locale::facet.base", [4 x i8], %struct.__locale_struct*, i8, [7 x i8], i32*, i32*, i16*, i8, [256 x i8], [256 x i8], i8, [6 x i8] }>
%"class.std::locale::facet.base" = type <{ i32 (...)**, i32 }>
%struct.__locale_struct = type { [13 x %struct.__locale_data*], i16*, i32*, i32*, [13 x i8*] }
%struct.__locale_data = type opaque
%"class.std::num_put" = type { %"class.std::locale::facet.base", [4 x i8] }
%"class.std::num_get" = type { %"class.std::locale::facet.base", [4 x i8] }

@_ZStL8__ioinit = internal global %"class.std::ios_base::Init" zeroinitializer, align 1
@__dso_handle = external hidden global i8
@_ZSt4cout = external dso_local global %"class.std::basic_ostream", align 8
@.str = private unnamed_addr constant [2 x i8] c" \00", align 1
@llvm.global_ctors = appending global [1 x { i32, void ()*, i8* }] [{ i32, void ()*, i8* } { i32 65535, void ()* @_GLOBAL__sub_I_98.cpp, i8* null }]

; Function Attrs: noinline uwtable
define internal void @__cxx_global_var_init() #0 section ".text.startup" {
  call void @_ZNSt8ios_base4InitC1Ev(%"class.std::ios_base::Init"* @_ZStL8__ioinit)
  %1 = call i32 @__cxa_atexit(void (i8*)* bitcast (void (%"class.std::ios_base::Init"*)* @_ZNSt8ios_base4InitD1Ev to void (i8*)*), i8* getelementptr inbounds (%"class.std::ios_base::Init", %"class.std::ios_base::Init"* @_ZStL8__ioinit, i32 0, i32 0), i8* @__dso_handle) #3
  ret void
}

declare dso_local void @_ZNSt8ios_base4InitC1Ev(%"class.std::ios_base::Init"*) unnamed_addr #1

; Function Attrs: nounwind
declare dso_local void @_ZNSt8ios_base4InitD1Ev(%"class.std::ios_base::Init"*) unnamed_addr #2

; Function Attrs: nounwind
declare dso_local i32 @__cxa_atexit(void (i8*)*, i8*, i8*) #3

; Function Attrs: noinline norecurse uwtable
define dso_local i32 @main() #4 {
  %1 = alloca i32, align 4
  %2 = alloca [6 x i32], align 16
  %3 = alloca i32, align 4
  %4 = alloca i32, align 4
  %5 = alloca i32, align 4
  %6 = alloca i32, align 4
  %7 = alloca i32, align 4
  %8 = alloca i32, align 4
  store i32 0, i32* %1, align 4
  store i32 1, i32* %7, align 4
  br label %9

9:                                                ; preds = %148, %0
  %10 = load i32, i32* %7, align 4
  %11 = icmp sle i32 %10, 5
  br i1 %11, label %12, label %151

12:                                               ; preds = %9
  %13 = load i32, i32* %7, align 4
  %14 = icmp eq i32 %13, 2
  br i1 %14, label %18, label %15

15:                                               ; preds = %12
  %16 = load i32, i32* %7, align 4
  %17 = icmp eq i32 %16, 3
  br i1 %17, label %18, label %19

18:                                               ; preds = %15, %12
  br label %148

19:                                               ; preds = %15
  store i32 1, i32* %3, align 4
  br label %20

20:                                               ; preds = %143, %19
  %21 = load i32, i32* %3, align 4
  %22 = icmp sle i32 %21, 5
  br i1 %22, label %23, label %146

23:                                               ; preds = %20
  %24 = load i32, i32* %3, align 4
  %25 = load i32, i32* %7, align 4
  %26 = icmp eq i32 %24, %25
  br i1 %26, label %27, label %28

27:                                               ; preds = %23
  br label %143

28:                                               ; preds = %23
  store i32 1, i32* %4, align 4
  br label %29

29:                                               ; preds = %138, %28
  %30 = load i32, i32* %4, align 4
  %31 = icmp sle i32 %30, 5
  br i1 %31, label %32, label %141

32:                                               ; preds = %29
  %33 = load i32, i32* %7, align 4
  %34 = load i32, i32* %4, align 4
  %35 = icmp eq i32 %33, %34
  br i1 %35, label %40, label %36

36:                                               ; preds = %32
  %37 = load i32, i32* %3, align 4
  %38 = load i32, i32* %4, align 4
  %39 = icmp eq i32 %37, %38
  br i1 %39, label %40, label %41

40:                                               ; preds = %36, %32
  br label %138

41:                                               ; preds = %36
  store i32 1, i32* %5, align 4
  br label %42

42:                                               ; preds = %133, %41
  %43 = load i32, i32* %5, align 4
  %44 = icmp sle i32 %43, 5
  br i1 %44, label %45, label %136

45:                                               ; preds = %42
  %46 = load i32, i32* %7, align 4
  %47 = load i32, i32* %5, align 4
  %48 = icmp eq i32 %46, %47
  br i1 %48, label %57, label %49

49:                                               ; preds = %45
  %50 = load i32, i32* %3, align 4
  %51 = load i32, i32* %5, align 4
  %52 = icmp eq i32 %50, %51
  br i1 %52, label %57, label %53

53:                                               ; preds = %49
  %54 = load i32, i32* %4, align 4
  %55 = load i32, i32* %5, align 4
  %56 = icmp eq i32 %54, %55
  br i1 %56, label %57, label %58

57:                                               ; preds = %53, %49, %45
  br label %133

58:                                               ; preds = %53
  %59 = load i32, i32* %3, align 4
  %60 = sub nsw i32 15, %59
  %61 = load i32, i32* %4, align 4
  %62 = sub nsw i32 %60, %61
  %63 = load i32, i32* %5, align 4
  %64 = sub nsw i32 %62, %63
  %65 = load i32, i32* %7, align 4
  %66 = sub nsw i32 %64, %65
  store i32 %66, i32* %6, align 4
  %67 = load i32, i32* %7, align 4
  %68 = icmp eq i32 %67, 1
  %69 = zext i1 %68 to i32
  %70 = load i32, i32* %3, align 4
  %71 = sext i32 %70 to i64
  %72 = getelementptr inbounds [6 x i32], [6 x i32]* %2, i64 0, i64 %71
  store i32 %69, i32* %72, align 4
  %73 = load i32, i32* %4, align 4
  %74 = icmp eq i32 %73, 2
  %75 = zext i1 %74 to i32
  %76 = load i32, i32* %4, align 4
  %77 = sext i32 %76 to i64
  %78 = getelementptr inbounds [6 x i32], [6 x i32]* %2, i64 0, i64 %77
  store i32 %75, i32* %78, align 4
  %79 = load i32, i32* %3, align 4
  %80 = icmp eq i32 %79, 5
  %81 = zext i1 %80 to i32
  %82 = load i32, i32* %5, align 4
  %83 = sext i32 %82 to i64
  %84 = getelementptr inbounds [6 x i32], [6 x i32]* %2, i64 0, i64 %83
  store i32 %81, i32* %84, align 4
  %85 = load i32, i32* %5, align 4
  %86 = icmp ne i32 %85, 1
  %87 = zext i1 %86 to i32
  %88 = load i32, i32* %6, align 4
  %89 = sext i32 %88 to i64
  %90 = getelementptr inbounds [6 x i32], [6 x i32]* %2, i64 0, i64 %89
  store i32 %87, i32* %90, align 4
  %91 = load i32, i32* %6, align 4
  %92 = icmp eq i32 %91, 1
  %93 = zext i1 %92 to i32
  %94 = load i32, i32* %7, align 4
  %95 = sext i32 %94 to i64
  %96 = getelementptr inbounds [6 x i32], [6 x i32]* %2, i64 0, i64 %95
  store i32 %93, i32* %96, align 4
  %97 = getelementptr inbounds [6 x i32], [6 x i32]* %2, i64 0, i64 1
  %98 = load i32, i32* %97, align 4
  %99 = icmp eq i32 %98, 1
  br i1 %99, label %100, label %131

100:                                              ; preds = %58
  %101 = getelementptr inbounds [6 x i32], [6 x i32]* %2, i64 0, i64 2
  %102 = load i32, i32* %101, align 8
  %103 = icmp eq i32 %102, 1
  br i1 %103, label %104, label %131

104:                                              ; preds = %100
  %105 = getelementptr inbounds [6 x i32], [6 x i32]* %2, i64 0, i64 3
  %106 = load i32, i32* %105, align 4
  %107 = icmp eq i32 %106, 0
  br i1 %107, label %108, label %131

108:                                              ; preds = %104
  %109 = getelementptr inbounds [6 x i32], [6 x i32]* %2, i64 0, i64 4
  %110 = load i32, i32* %109, align 16
  %111 = icmp eq i32 %110, 0
  br i1 %111, label %112, label %131

112:                                              ; preds = %108
  %113 = getelementptr inbounds [6 x i32], [6 x i32]* %2, i64 0, i64 5
  %114 = load i32, i32* %113, align 4
  %115 = icmp eq i32 %114, 0
  br i1 %115, label %116, label %131

116:                                              ; preds = %112
  %117 = load i32, i32* %3, align 4
  %118 = call dereferenceable(272) %"class.std::basic_ostream"* @_ZNSolsEi(%"class.std::basic_ostream"* @_ZSt4cout, i32 %117)
  %119 = call dereferenceable(272) %"class.std::basic_ostream"* @_ZStlsISt11char_traitsIcEERSt13basic_ostreamIcT_ES5_PKc(%"class.std::basic_ostream"* dereferenceable(272) %118, i8* getelementptr inbounds ([2 x i8], [2 x i8]* @.str, i64 0, i64 0))
  %120 = load i32, i32* %4, align 4
  %121 = call dereferenceable(272) %"class.std::basic_ostream"* @_ZNSolsEi(%"class.std::basic_ostream"* %119, i32 %120)
  %122 = call dereferenceable(272) %"class.std::basic_ostream"* @_ZStlsISt11char_traitsIcEERSt13basic_ostreamIcT_ES5_PKc(%"class.std::basic_ostream"* dereferenceable(272) %121, i8* getelementptr inbounds ([2 x i8], [2 x i8]* @.str, i64 0, i64 0))
  %123 = load i32, i32* %5, align 4
  %124 = call dereferenceable(272) %"class.std::basic_ostream"* @_ZNSolsEi(%"class.std::basic_ostream"* %122, i32 %123)
  %125 = call dereferenceable(272) %"class.std::basic_ostream"* @_ZStlsISt11char_traitsIcEERSt13basic_ostreamIcT_ES5_PKc(%"class.std::basic_ostream"* dereferenceable(272) %124, i8* getelementptr inbounds ([2 x i8], [2 x i8]* @.str, i64 0, i64 0))
  %126 = load i32, i32* %6, align 4
  %127 = call dereferenceable(272) %"class.std::basic_ostream"* @_ZNSolsEi(%"class.std::basic_ostream"* %125, i32 %126)
  %128 = call dereferenceable(272) %"class.std::basic_ostream"* @_ZStlsISt11char_traitsIcEERSt13basic_ostreamIcT_ES5_PKc(%"class.std::basic_ostream"* dereferenceable(272) %127, i8* getelementptr inbounds ([2 x i8], [2 x i8]* @.str, i64 0, i64 0))
  %129 = load i32, i32* %7, align 4
  %130 = call dereferenceable(272) %"class.std::basic_ostream"* @_ZNSolsEi(%"class.std::basic_ostream"* %128, i32 %129)
  br label %131

131:                                              ; preds = %116, %112, %108, %104, %100, %58
  br label %132

132:                                              ; preds = %131
  br label %133

133:                                              ; preds = %132, %57
  %134 = load i32, i32* %5, align 4
  %135 = add nsw i32 %134, 1
  store i32 %135, i32* %5, align 4
  br label %42

136:                                              ; preds = %42
  br label %137

137:                                              ; preds = %136
  br label %138

138:                                              ; preds = %137, %40
  %139 = load i32, i32* %4, align 4
  %140 = add nsw i32 %139, 1
  store i32 %140, i32* %4, align 4
  br label %29

141:                                              ; preds = %29
  br label %142

142:                                              ; preds = %141
  br label %143

143:                                              ; preds = %142, %27
  %144 = load i32, i32* %3, align 4
  %145 = add nsw i32 %144, 1
  store i32 %145, i32* %3, align 4
  br label %20

146:                                              ; preds = %20
  br label %147

147:                                              ; preds = %146
  br label %148

148:                                              ; preds = %147, %18
  %149 = load i32, i32* %7, align 4
  %150 = add nsw i32 %149, 1
  store i32 %150, i32* %7, align 4
  br label %9

151:                                              ; preds = %9
  ret i32 0
}

declare dso_local dereferenceable(272) %"class.std::basic_ostream"* @_ZStlsISt11char_traitsIcEERSt13basic_ostreamIcT_ES5_PKc(%"class.std::basic_ostream"* dereferenceable(272), i8*) #1

declare dso_local dereferenceable(272) %"class.std::basic_ostream"* @_ZNSolsEi(%"class.std::basic_ostream"*, i32) #1

; Function Attrs: noinline uwtable
define internal void @_GLOBAL__sub_I_98.cpp() #0 section ".text.startup" {
  call void @__cxx_global_var_init()
  ret void
}


!llvm.module.flags = !{!0}
!llvm.ident = !{!1}

!0 = !{i32 1, !"wchar_size", i32 4}
!1 = !{!"clang version 10.0.0-4ubuntu1 "}
